target datalayout = "e-m:e-p270:32:32-p271:32:32-p272:64:64-i64:64-i128:128-f80:128-n8:16:32:64-S128"
target triple = "x86_64-pc-linux-gnu"

%"class.pxrInternal_v0_24__pxrReserved__::GfVec3d" = type { [3 x double] }
%"class.pxrInternal_v0_24__pxrReserved__::GfPlane" = type { %"class.pxrInternal_v0_24__pxrReserved__::GfVec3d", double }
%"class.pxrInternal_v0_24__pxrReserved__::GfVec4d" = type { [4 x double] }

; Function Attrs: mustprogress nounwind uwtable
define linkonce_odr noundef nonnull align 8 dereferenceable(8) ptr @_ZNK32pxrInternal_v0_24__pxrReserved__7GfVec3dixEm(ptr noundef nonnull align 8 dereferenceable(24) %0, i64 noundef %1) #2 comdat align 2 {
  %3 = alloca ptr, align 8
  %4 = alloca i64, align 8
  store ptr %0, ptr %3, align 8
  store i64 %1, ptr %4, align 8
  %5 = load ptr, ptr %3, align 8
  %6 = getelementptr inbounds nuw %"class.pxrInternal_v0_24__pxrReserved__::GfVec3d", ptr %5, i32 0, i32 0
  %7 = load i64, ptr %4, align 8
  %8 = getelementptr inbounds [3 x double], ptr %6, i64 0, i64 %7
  ret ptr %8
}

; Function Attrs: mustprogress uwtable
define linkonce_odr noundef double @_ZNK32pxrInternal_v0_24__pxrReserved__7GfVec3dmlERKS0_(ptr noundef nonnull align 8 dereferenceable(24) %0, ptr noundef nonnull align 8 dereferenceable(24) %1) #0 comdat align 2 {
  %3 = alloca ptr, align 8
  %4 = alloca ptr, align 8
  store ptr %0, ptr %3, align 8
  store ptr %1, ptr %4, align 8
  %5 = load ptr, ptr %3, align 8
  %6 = getelementptr inbounds nuw %"class.pxrInternal_v0_24__pxrReserved__::GfVec3d", ptr %5, i32 0, i32 0
  %7 = getelementptr inbounds [3 x double], ptr %6, i64 0, i64 0
  %8 = load double, ptr %7, align 8
  %9 = load ptr, ptr %4, align 8
  %10 = call noundef nonnull align 8 dereferenceable(8) ptr @_ZNK32pxrInternal_v0_24__pxrReserved__7GfVec3dixEm(ptr noundef nonnull align 8 dereferenceable(24) %9, i64 noundef 0)
  %11 = load double, ptr %10, align 8
  %12 = getelementptr inbounds nuw %"class.pxrInternal_v0_24__pxrReserved__::GfVec3d", ptr %5, i32 0, i32 0
  %13 = getelementptr inbounds [3 x double], ptr %12, i64 0, i64 1
  %14 = load double, ptr %13, align 8
  %15 = load ptr, ptr %4, align 8
  %16 = call noundef nonnull align 8 dereferenceable(8) ptr @_ZNK32pxrInternal_v0_24__pxrReserved__7GfVec3dixEm(ptr noundef nonnull align 8 dereferenceable(24) %15, i64 noundef 1)
  %17 = load double, ptr %16, align 8
  %18 = fmul double %14, %17
  %19 = call double @llvm.fmuladd.f64(double %8, double %11, double %18)
  %20 = getelementptr inbounds nuw %"class.pxrInternal_v0_24__pxrReserved__::GfVec3d", ptr %5, i32 0, i32 0
  %21 = getelementptr inbounds [3 x double], ptr %20, i64 0, i64 2
  %22 = load double, ptr %21, align 8
  %23 = load ptr, ptr %4, align 8
  %24 = call noundef nonnull align 8 dereferenceable(8) ptr @_ZNK32pxrInternal_v0_24__pxrReserved__7GfVec3dixEm(ptr noundef nonnull align 8 dereferenceable(24) %23, i64 noundef 2)
  %25 = load double, ptr %24, align 8
  %26 = call double @llvm.fmuladd.f64(double %22, double %25, double %19)
  ret double %26
}

; Function Attrs: mustprogress nounwind uwtable
define linkonce_odr noundef nonnull align 8 dereferenceable(24) ptr @_ZN32pxrInternal_v0_24__pxrReserved__7GfVec3dmLEd(ptr noundef nonnull align 8 dereferenceable(24) %0, double noundef %1) #2 comdat align 2 {
  %3 = alloca ptr, align 8
  %4 = alloca double, align 8
  store ptr %0, ptr %3, align 8
  store double %1, ptr %4, align 8
  %5 = load ptr, ptr %3, align 8
  %6 = load double, ptr %4, align 8
  %7 = getelementptr inbounds nuw %"class.pxrInternal_v0_24__pxrReserved__::GfVec3d", ptr %5, i32 0, i32 0
  %8 = getelementptr inbounds [3 x double], ptr %7, i64 0, i64 0
  %9 = load double, ptr %8, align 8
  %10 = fmul double %9, %6
  store double %10, ptr %8, align 8
  %11 = load double, ptr %4, align 8
  %12 = getelementptr inbounds nuw %"class.pxrInternal_v0_24__pxrReserved__::GfVec3d", ptr %5, i32 0, i32 0
  %13 = getelementptr inbounds [3 x double], ptr %12, i64 0, i64 1
  %14 = load double, ptr %13, align 8
  %15 = fmul double %14, %11
  store double %15, ptr %13, align 8
  %16 = load double, ptr %4, align 8
  %17 = getelementptr inbounds nuw %"class.pxrInternal_v0_24__pxrReserved__::GfVec3d", ptr %5, i32 0, i32 0
  %18 = getelementptr inbounds [3 x double], ptr %17, i64 0, i64 2
  %19 = load double, ptr %18, align 8
  %20 = fmul double %19, %16
  store double %20, ptr %18, align 8
  ret ptr %5
}

; Function Attrs: mustprogress nounwind uwtable
define linkonce_odr noundef double @_ZN32pxrInternal_v0_24__pxrReserved__6GfSqrtEd(double noundef %0) #2 comdat {
  %2 = alloca double, align 8
  store double %0, ptr %2, align 8
  %3 = load double, ptr %2, align 8
  %4 = call double @sqrt(double noundef %3) #7
  ret double %4
}

; Function Attrs: mustprogress uwtable
define linkonce_odr noundef double @_ZNK32pxrInternal_v0_24__pxrReserved__7GfVec3d11GetLengthSqEv(ptr noundef nonnull align 8 dereferenceable(24) %0) #0 comdat align 2 {
  %2 = alloca ptr, align 8
  store ptr %0, ptr %2, align 8
  %3 = load ptr, ptr %2, align 8
  %4 = call noundef double @_ZNK32pxrInternal_v0_24__pxrReserved__7GfVec3dmlERKS0_(ptr noundef nonnull align 8 dereferenceable(24) %3, ptr noundef nonnull align 8 dereferenceable(24) %3)
  ret double %4
}

; Function Attrs: mustprogress uwtable
define linkonce_odr noundef nonnull align 8 dereferenceable(24) ptr @_ZN32pxrInternal_v0_24__pxrReserved__7GfVec3ddVEd(ptr noundef nonnull align 8 dereferenceable(24) %0, double noundef %1) #0 comdat align 2 {
  %3 = alloca ptr, align 8
  %4 = alloca double, align 8
  store ptr %0, ptr %3, align 8
  store double %1, ptr %4, align 8
  %5 = load ptr, ptr %3, align 8
  %6 = load double, ptr %4, align 8
  %7 = fdiv double 1.000000e+00, %6
  %8 = call noundef nonnull align 8 dereferenceable(24) ptr @_ZN32pxrInternal_v0_24__pxrReserved__7GfVec3dmLEd(ptr noundef nonnull align 8 dereferenceable(24) %5, double noundef %7)
  ret ptr %8
}

; Function Attrs: mustprogress uwtable
define linkonce_odr noundef double @_ZNK32pxrInternal_v0_24__pxrReserved__7GfVec3d9GetLengthEv(ptr noundef nonnull align 8 dereferenceable(24) %0) #0 comdat align 2 {
  %2 = alloca ptr, align 8
  store ptr %0, ptr %2, align 8
  %3 = load ptr, ptr %2, align 8
  %4 = call noundef double @_ZNK32pxrInternal_v0_24__pxrReserved__7GfVec3d11GetLengthSqEv(ptr noundef nonnull align 8 dereferenceable(24) %3)
  %5 = call noundef double @_ZN32pxrInternal_v0_24__pxrReserved__6GfSqrtEd(double noundef %4)
  ret double %5
}

; Function Attrs: mustprogress uwtable
define linkonce_odr noundef double @_ZN32pxrInternal_v0_24__pxrReserved__7GfVec3d9NormalizeEd(ptr noundef nonnull align 8 dereferenceable(24) %0, double noundef %1) #0 comdat align 2 {
  %3 = alloca ptr, align 8
  %4 = alloca double, align 8
  %5 = alloca double, align 8
  store ptr %0, ptr %3, align 8
  store double %1, ptr %4, align 8
  %6 = load ptr, ptr %3, align 8
  %7 = call noundef double @_ZNK32pxrInternal_v0_24__pxrReserved__7GfVec3d9GetLengthEv(ptr noundef nonnull align 8 dereferenceable(24) %6)
  store double %7, ptr %5, align 8
  %8 = load double, ptr %5, align 8
  %9 = load double, ptr %4, align 8
  %10 = fcmp ogt double %8, %9
  br i1 %10, label %11, label %13

11:                                               ; preds = %2
  %12 = load double, ptr %5, align 8
  br label %15

13:                                               ; preds = %2
  %14 = load double, ptr %4, align 8
  br label %15

15:                                               ; preds = %13, %11
  %16 = phi double [ %12, %11 ], [ %14, %13 ]
  %17 = call noundef nonnull align 8 dereferenceable(24) ptr @_ZN32pxrInternal_v0_24__pxrReserved__7GfVec3ddVEd(ptr noundef nonnull align 8 dereferenceable(24) %6, double noundef %16)
  %18 = load double, ptr %5, align 8
  ret double %18
}

; Function Attrs: mustprogress nounwind uwtable
define linkonce_odr noundef nonnull align 8 dereferenceable(8) ptr @_ZN32pxrInternal_v0_24__pxrReserved__7GfVec3dixEm(ptr noundef nonnull align 8 dereferenceable(24) %0, i64 noundef %1) #2 comdat align 2 {
  %3 = alloca ptr, align 8
  %4 = alloca i64, align 8
  store ptr %0, ptr %3, align 8
  store i64 %1, ptr %4, align 8
  %5 = load ptr, ptr %3, align 8
  %6 = getelementptr inbounds nuw %"class.pxrInternal_v0_24__pxrReserved__::GfVec3d", ptr %5, i32 0, i32 0
  %7 = load i64, ptr %4, align 8
  %8 = getelementptr inbounds [3 x double], ptr %6, i64 0, i64 %7
  ret ptr %8
}

; Function Attrs: mustprogress nounwind uwtable
define linkonce_odr noundef nonnull align 8 dereferenceable(8) ptr @_ZNK32pxrInternal_v0_24__pxrReserved__7GfVec4dixEm(ptr noundef nonnull align 8 dereferenceable(32) %0, i64 noundef %1) #2 comdat align 2 {
  %3 = alloca ptr, align 8
  %4 = alloca i64, align 8
  store ptr %0, ptr %3, align 8
  store i64 %1, ptr %4, align 8
  %5 = load ptr, ptr %3, align 8
  %6 = getelementptr inbounds nuw %"class.pxrInternal_v0_24__pxrReserved__::GfVec4d", ptr %5, i32 0, i32 0
  %7 = load i64, ptr %4, align 8
  %8 = getelementptr inbounds [4 x double], ptr %6, i64 0, i64 %7
  ret ptr %8
}

; Function Attrs: mustprogress uwtable
define void @_ZN32pxrInternal_v0_24__pxrReserved__7GfPlane3SetERKNS_7GfVec4dE(ptr noundef nonnull align 8 dereferenceable(32) %0, ptr noundef nonnull align 8 dereferenceable(32) %1) #0 align 2 {
  %3 = alloca ptr, align 8
  %4 = alloca ptr, align 8
  %5 = alloca i64, align 8
  %6 = alloca double, align 8
  store ptr %0, ptr %3, align 8
  store ptr %1, ptr %4, align 8
  %7 = load ptr, ptr %3, align 8
  store i64 0, ptr %5, align 8
  br label %8

8:                                                ; preds = %19, %2
  %9 = load i64, ptr %5, align 8
  %10 = icmp ult i64 %9, 3
  br i1 %10, label %11, label %22

11:                                               ; preds = %8
  %12 = load ptr, ptr %4, align 8
  %13 = load i64, ptr %5, align 8
  %14 = call noundef nonnull align 8 dereferenceable(8) ptr @_ZNK32pxrInternal_v0_24__pxrReserved__7GfVec4dixEm(ptr noundef nonnull align 8 dereferenceable(32) %12, i64 noundef %13)
  %15 = load double, ptr %14, align 8
  %16 = getelementptr inbounds nuw %"class.pxrInternal_v0_24__pxrReserved__::GfPlane", ptr %7, i32 0, i32 0
  %17 = load i64, ptr %5, align 8
  %18 = call noundef nonnull align 8 dereferenceable(8) ptr @_ZN32pxrInternal_v0_24__pxrReserved__7GfVec3dixEm(ptr noundef nonnull align 8 dereferenceable(24) %16, i64 noundef %17)
  store double %15, ptr %18, align 8
  br label %19

19:                                               ; preds = %11
  %20 = load i64, ptr %5, align 8
  %21 = add i64 %20, 1
  store i64 %21, ptr %5, align 8
  br label %8, !llvm.loop !4

22:                                               ; preds = %8
  %23 = load ptr, ptr %4, align 8
  %24 = call noundef nonnull align 8 dereferenceable(8) ptr @_ZNK32pxrInternal_v0_24__pxrReserved__7GfVec4dixEm(ptr noundef nonnull align 8 dereferenceable(32) %23, i64 noundef 3)
  %25 = load double, ptr %24, align 8
  %26 = fneg double %25
  %27 = getelementptr inbounds nuw %"class.pxrInternal_v0_24__pxrReserved__::GfPlane", ptr %7, i32 0, i32 1
  store double %26, ptr %27, align 8
  %28 = getelementptr inbounds nuw %"class.pxrInternal_v0_24__pxrReserved__::GfPlane", ptr %7, i32 0, i32 0
  %29 = call noundef double @_ZN32pxrInternal_v0_24__pxrReserved__7GfVec3d9NormalizeEd(ptr noundef nonnull align 8 dereferenceable(24) %28, double noundef 1.000000e-10)
  store double %29, ptr %6, align 8
  %30 = load double, ptr %6, align 8
  %31 = fcmp une double %30, 0.000000e+00
  br i1 %31, label %32, label %37

32:                                               ; preds = %22
  %33 = load double, ptr %6, align 8
  %34 = getelementptr inbounds nuw %"class.pxrInternal_v0_24__pxrReserved__::GfPlane", ptr %7, i32 0, i32 1
  %35 = load double, ptr %34, align 8
  %36 = fdiv double %35, %33
  store double %36, ptr %34, align 8
  br label %37

37:                                               ; preds = %32, %22
  ret void
}