; Function Attrs: mustprogress nofree norecurse nosync nounwind memory(argmem: readwrite) uwtable
define void @_ZN32pxrInternal_v0_24__pxrReserved__7GfPlane3SetERKNS_7GfVec4dE(ptr nocapture noundef nonnull align 8 dereferenceable(32) %0, ptr nocapture noundef nonnull readonly align 8 dereferenceable(32) %1) local_unnamed_addr #3 align 2 {
  br label %3

3:                                                ; preds = %2, %3
  %.09 = phi i64 [ 0, %2 ], [ %7, %3 ]
  %4 = getelementptr inbounds [4 x double], ptr %1, i64 0, i64 %.09
  %5 = load double, ptr %4, align 8
  %6 = getelementptr inbounds [3 x double], ptr %0, i64 0, i64 %.09
  store double %5, ptr %6, align 8
  %7 = add nuw nsw i64 %.09, 1
  %exitcond.not = icmp eq i64 %7, 3
  br i1 %exitcond.not, label %8, label %3, !llvm.loop !11

8:                                                ; preds = %3
  %9 = getelementptr inbounds i8, ptr %1, i64 24
  %10 = load double, ptr %9, align 8
  %11 = fneg double %10
  %12 = getelementptr inbounds nuw i8, ptr %0, i64 24
  store double %11, ptr %12, align 8
  %13 = load double, ptr %0, align 8
  %14 = getelementptr inbounds i8, ptr %0, i64 8
  %15 = load double, ptr %14, align 8
  %16 = fmul double %15, %15
  %17 = tail call double @llvm.fmuladd.f64(double %13, double %13, double %16)
  %18 = getelementptr inbounds i8, ptr %0, i64 16
  %19 = load double, ptr %18, align 8
  %20 = tail call noundef double @llvm.fmuladd.f64(double %19, double %19, double %17)
  %sqrt.i.i = tail call noundef double @llvm.sqrt.f64(double %20)
  %21 = fcmp ogt double %sqrt.i.i, 1.000000e-10
  %22 = select i1 %21, double %sqrt.i.i, double 1.000000e-10
  %23 = fdiv double 1.000000e+00, %22
  %24 = fmul double %13, %23
  store double %24, ptr %0, align 8
  %25 = fmul double %15, %23
  store double %25, ptr %14, align 8
  %26 = fmul double %19, %23
  store double %26, ptr %18, align 8
  %27 = fcmp une double %20, 0.000000e+00
  br i1 %27, label %28, label %30

28:                                               ; preds = %8
  %29 = fdiv double %11, %sqrt.i.i
  store double %29, ptr %12, align 8
  br label %30

30:                                               ; preds = %28, %8
  ret void
}